(lp0
(lp1
I0
aI7
aI1
aI13
aI0
aI0
aI11
aI4
aI0
aI0
aI0
aI0
aI17
aI1
aI0
aI2
aI0
aI0
aI11
aI3
aI5
aI0
aI0
aI1
aI0
aI3
aI0
aI4
aI11
aI3
aI2
aI0
aI4
aI1
aI1
aI0
aI1
aa(lp2
I0
aI11
aI1
aI11
aI0
aI0
aI19
aI21
aI0
aI0
aI0
aI0
aI31
aI7
aI0
aI4
aI1
aI0
aI12
aI3
aI20
aI0
aI0
aI1
aI0
aI7
aI0
aI8
aI5
aI15
aI1
aI3
aI5
aI0
aI3
aI0
aI4
aa(lp3
I0
aI4
aI3
aI2
aI0
aI0
aI5
aI9
aI1
aI0
aI0
aI0
aI7
aI1
aI0
aI2
aI0
aI0
aI2
aI1
aI6
aI0
aI0
aI0
aI0
aI5
aI0
aI5
aI0
aI3
aI0
aI2
aI3
aI0
aI2
aI0
aI0
aa(lp4
I0
aI5
aI0
aI11
aI0
aI0
aI27
aI13
aI0
aI0
aI0
aI0
aI24
aI4
aI0
aI14
aI0
aI0
aI8
aI0
aI15
aI0
aI0
aI2
aI0
aI6
aI0
aI6
aI1
aI4
aI0
aI12
aI3
aI3
aI0
aI0
aI1
aa(lp5
I0
aI3
aI1
aI6
aI0
aI0
aI4
aI3
aI0
aI1
aI0
aI0
aI6
aI2
aI0
aI0
aI1
aI0
aI1
aI0
aI5
aI0
aI0
aI1
aI0
aI2
aI0
aI4
aI0
aI4
aI0
aI1
aI1
aI0
aI1
aI0
aI1
aa(lp6
I0
aI3
aI1
aI6
aI1
aI0
aI11
aI8
aI0
aI0
aI0
aI0
aI8
aI1
aI0
aI4
aI0
aI0
aI6
aI1
aI10
aI1
aI0
aI1
aI0
aI6
aI0
aI9
aI3
aI2
aI2
aI3
aI1
aI0
aI0
aI0
aI0
aa(lp7
I0
aI5
aI0
aI6
aI0
aI0
aI9
aI5
aI1
aI0
aI0
aI0
aI14
aI2
aI0
aI2
aI0
aI0
aI5
aI1
aI8
aI0
aI0
aI1
aI0
aI4
aI0
aI5
aI0
aI5
aI1
aI5
aI3
aI2
aI0
aI0
aI1
aa(lp8
I0
aI7
aI0
aI14
aI0
aI0
aI15
aI5
aI1
aI0
aI0
aI2
aI13
aI0
aI0
aI3
aI0
aI0
aI13
aI0
aI7
aI0
aI0
aI2
aI0
aI1
aI0
aI5
aI9
aI6
aI1
aI5
aI0
aI0
aI0
aI0
aI2
aa(lp9
I0
aI2
aI0
aI5
aI0
aI0
aI5
aI3
aI0
aI1
aI0
aI0
aI7
aI1
aI0
aI2
aI0
aI0
aI1
aI0
aI0
aI0
aI0
aI0
aI0
aI0
aI0
aI1
aI0
aI1
aI0
aI1
aI1
aI1
aI0
aI0
aI1
aa(lp10
I0
aI2
aI0
aI4
aI0
aI0
aI10
aI2
aI0
aI0
aI0
aI0
aI6
aI3
aI0
aI1
aI0
aI0
aI2
aI0
aI2
aI0
aI0
aI0
aI0
aI2
aI0
aI3
aI1
aI1
aI0
aI3
aI2
aI2
aI0
aI0
aI1
aa(lp11
I0
aI6
aI0
aI5
aI0
aI0
aI11
aI3
aI1
aI0
aI0
aI0
aI18
aI2
aI0
aI2
aI0
aI0
aI3
aI1
aI2
aI0
aI0
aI0
aI0
aI1
aI0
aI2
aI0
aI3
aI1
aI2
aI1
aI0
aI0
aI0
aI0
aa(lp12
I0
aI6
aI4
aI17
aI2
aI0
aI17
aI5
aI0
aI0
aI0
aI2
aI18
aI2
aI0
aI8
aI0
aI0
aI7
aI0
aI7
aI0
aI0
aI1
aI0
aI3
aI0
aI7
aI2
aI5
aI0
aI8
aI3
aI1
aI4
aI0
aI0
aa(lp13
I0
aI2
aI0
aI4
aI0
aI0
aI3
aI3
aI0
aI0
aI0
aI0
aI7
aI1
aI0
aI1
aI0
aI0
aI1
aI0
aI6
aI0
aI0
aI0
aI0
aI3
aI0
aI5
aI0
aI2
aI0
aI2
aI1
aI0
aI0
aI0
aI0
aa(lp14
I0
aI8
aI0
aI2
aI0
aI0
aI13
aI3
aI0
aI0
aI0
aI0
aI9
aI0
aI0
aI4
aI0
aI0
aI8
aI1
aI11
aI0
aI0
aI1
aI0
aI2
aI0
aI2
aI3
aI8
aI5
aI1
aI1
aI1
aI0
aI0
aI1
aa(lp15
I0
aI3
aI2
aI2
aI0
aI0
aI7
aI2
aI0
aI0
aI0
aI0
aI6
aI1
aI0
aI2
aI0
aI0
aI3
aI0
aI2
aI0
aI0
aI0
aI0
aI2
aI0
aI1
aI0
aI2
aI0
aI2
aI0
aI0
aI0
aI0
aI0
aa(lp16
I0
aI1
aI1
aI6
aI0
aI0
aI11
aI10
aI0
aI0
aI0
aI0
aI10
aI4
aI1
aI2
aI0
aI0
aI5
aI2
aI6
aI0
aI0
aI0
aI0
aI3
aI0
aI2
aI7
aI1
aI0
aI1
aI0
aI0
aI0
aI0
aI1
aa(lp17
I0
aI10
aI0
aI3
aI0
aI0
aI14
aI2
aI0
aI0
aI0
aI0
aI8
aI0
aI0
aI4
aI0
aI0
aI10
aI1
aI5
aI0
aI0
aI1
aI0
aI2
aI0
aI2
aI6
aI9
aI4
aI3
aI1
aI0
aI0
aI0
aI0
aa(lp18
I0
aI3
aI1
aI8
aI0
aI0
aI11
aI8
aI0
aI0
aI0
aI0
aI12
aI2
aI0
aI1
aI0
aI0
aI6
aI2
aI5
aI0
aI0
aI0
aI0
aI2
aI0
aI1
aI7
aI2
aI0
aI2
aI0
aI1
aI0
aI0
aI1
aa(lp19
I0
aI0
aI0
aI1
aI0
aI0
aI2
aI2
aI0
aI0
aI0
aI0
aI1
aI0
aI0
aI2
aI0
aI0
aI0
aI0
aI0
aI0
aI0
aI0
aI0
aI0
aI0
aI0
aI0
aI2
aI0
aI0
aI0
aI0
aI0
aI0
aI0
aa(lp20
I0
aI1
aI0
aI0
aI0
aI0
aI1
aI1
aI0
aI0
aI0
aI0
aI2
aI0
aI0
aI0
aI0
aI0
aI1
aI0
aI1
aI0
aI0
aI0
aI0
aI0
aI0
aI0
aI0
aI1
aI0
aI0
aI0
aI0
aI0
aI0
aI0
aa(lp21
I0
aI0
aI0
aI1
aI0
aI0
aI2
aI2
aI0
aI0
aI0
aI0
aI2
aI1
aI0
aI0
aI0
aI0
aI0
aI0
aI0
aI0
aI0
aI0
aI0
aI0
aI0
aI0
aI0
aI1
aI0
aI0
aI0
aI0
aI0
aI0
aI0
aa(lp22
I0
aI5
aI1
aI15
aI1
aI0
aI31
aI14
aI0
aI3
aI0
aI2
aI37
aI5
aI0
aI7
aI0
aI0
aI25
aI2
aI16
aI0
aI0
aI1
aI0
aI4
aI0
aI10
aI9
aI7
aI3
aI12
aI6
aI1
aI3
aI0
aI4
aa(lp23
I0
aI4
aI1
aI3
aI0
aI0
aI4
aI5
aI0
aI1
aI0
aI0
aI9
aI0
aI0
aI2
aI0
aI0
aI3
aI3
aI4
aI0
aI0
aI0
aI0
aI1
aI0
aI2
aI0
aI1
aI0
aI3
aI1
aI0
aI0
aI0
aI0
aa(lp24
I0
aI3
aI1
aI6
aI0
aI0
aI5
aI3
aI0
aI0
aI0
aI0
aI6
aI1
aI0
aI2
aI1
aI0
aI4
aI0
aI3
aI0
aI0
aI0
aI0
aI2
aI0
aI0
aI5
aI0
aI0
aI0
aI0
aI0
aI0
aI0
aI1
aa(lp25
I0
aI1
aI0
aI3
aI0
aI0
aI4
aI3
aI0
aI1
aI0
aI1
aI5
aI0
aI0
aI1
aI0
aI0
aI2
aI1
aI2
aI0
aI0
aI0
aI0
aI3
aI0
aI3
aI0
aI1
aI0
aI2
aI3
aI0
aI0
aI0
aI0
aa(lp26
I0
aI1
aI3
aI4
aI0
aI0
aI5
aI3
aI0
aI0
aI0
aI1
aI9
aI0
aI0
aI0
aI0
aI0
aI7
aI0
aI6
aI0
aI0
aI0
aI0
aI5
aI0
aI10
aI0
aI2
aI0
aI3
aI2
aI3
aI2
aI0
aI1
aa(lp27
I1
aI3
aI1
aI4
aI0
aI0
aI15
aI4
aI0
aI0
aI0
aI0
aI16
aI2
aI0
aI3
aI0
aI0
aI12
aI1
aI5
aI1
aI0
aI0
aI0
aI6
aI0
aI6
aI5
aI8
aI1
aI6
aI3
aI0
aI0
aI0
aI3
aa(lp28
I0
aI3
aI1
aI3
aI0
aI0
aI12
aI4
aI0
aI0
aI0
aI0
aI10
aI3
aI0
aI2
aI0
aI0
aI4
aI0
aI2
aI1
aI0
aI0
aI0
aI2
aI0
aI2
aI0
aI4
aI1
aI3
aI2
aI0
aI0
aI0
aI0
aa.