(lp0
(lp1
S'1'
p2
aS'3'
p3
ag3
ag3
ag3
ag3
ag3
aa(lp4
S'2'
p5
ag3
ag3
ag3
ag3
ag3
ag5
aa(lp6
g3
ag3
ag3
ag3
ag3
ag5
ag3
aa(lp7
S'4'
p8
ag3
ag2
ag3
ag3
ag3
ag3
aa(lp9
S'5'
p10
ag3
ag3
ag3
ag3
ag2
ag2
aa(lp11
S'6'
p12
ag3
ag3
ag3
ag3
ag3
ag3
aa(lp13
S'7'
p14
ag3
ag3
ag3
ag3
ag3
ag3
aa(lp15
S'8'
p16
ag3
ag3
ag3
ag3
ag3
ag3
aa(lp17
S'10'
p18
ag3
ag3
ag3
ag5
ag2
ag2
aa(lp19
S'11'
p20
ag3
ag3
ag3
ag5
ag2
ag2
aa(lp21
S'12'
p22
ag3
ag3
ag3
ag3
ag3
ag3
aa(lp23
S'13'
p24
ag3
ag3
ag3
ag3
ag3
ag3
aa(lp25
S'14'
p26
ag2
ag2
ag2
ag2
ag2
ag2
aa(lp27
S'15'
p28
ag5
ag5
ag3
ag3
ag2
ag2
aa(lp29
S'16'
p30
ag3
ag5
ag3
ag3
ag2
ag2
aa(lp31
S'17'
p32
ag3
ag3
ag3
ag3
ag2
ag2
aa(lp33
S'18'
p34
ag3
ag3
ag3
ag3
ag3
ag3
aa(lp35
S'19'
p36
ag3
ag3
ag3
ag2
ag5
ag5
aa(lp37
S'20'
p38
ag3
ag3
ag3
ag2
ag2
ag2
aa(lp39
S'21'
p40
ag3
ag3
ag3
ag2
ag2
ag2
aa(lp41
S'22'
p42
ag3
ag3
ag3
ag2
ag2
ag2
aa(lp43
S'23'
p44
ag5
ag3
ag3
ag3
ag3
ag5
aa(lp45
S'25'
p46
ag3
ag3
ag3
ag2
ag2
ag2
aa(lp47
S'26'
p48
ag3
ag3
ag3
ag2
ag2
ag2
aa(lp49
S'27'
p50
ag3
ag3
ag3
ag3
ag2
ag2
aa(lp51
S'28'
p52
ag5
ag3
ag3
ag2
ag5
ag2
aa(lp53
S'29'
p54
ag3
ag3
ag3
ag3
ag3
ag3
aa(lp55
S'30'
p56
ag3
ag3
ag3
ag3
ag3
ag3
aa.